target datalayout = "e-m:e-p270:32:32-p271:32:32-p272:64:64-i64:64-i128:128-f80:128-n8:16:32:64-S128"
target triple = "x86_64-pc-linux-gnu"

%"class.llvm::SmallVectorBase" = type { ptr, i32, i32 }
%"class.llvm::X86AsmPrinter::StackMapShadowTracker" = type <{ ptr, i8, [3 x i8], i32, i32, [4 x i8] }>
%"class.llvm::MachineFunction" = type <{ ptr, ptr, ptr, ptr, ptr, ptr, ptr, ptr, ptr, ptr, ptr, ptr, %"class.std::vector.51", i32, [4 x i8], %"class.llvm::BumpPtrAllocatorImpl", %"class.llvm::Recycler", %"class.llvm::ArrayRecycler", %"class.llvm::Recycler.72", %"class.llvm::iplist", i32, %"struct.llvm::Align", i8, i8, i8, %"class.llvm::MachineFunctionProperties", %"class.std::unique_ptr.73", %"class.std::vector.81", %"class.std::vector.86", %"class.std::vector.86", %"class.std::vector.91", %"class.llvm::DenseMap", %"class.llvm::DenseMap.96", %"class.llvm::DenseMap.99", %"class.std::vector.102", i8, i8, i8, i8, i8, i8, [2 x i8], i32, i32, %"class.std::vector.107", %"class.std::vector.112", %"class.std::vector.112", i32, [4 x i8], ptr, ptr, %"class.llvm::DenseMap.117", %"class.llvm::SmallVector.120", i32, [4 x i8], %"class.llvm::SmallVector.125", %"class.llvm::DenseMap.130", i8, [7 x i8] }>
%"class.std::vector.51" = type { %"struct.std::_Vector_base.52" }
%"struct.std::_Vector_base.52" = type { %"struct.std::_Vector_base<llvm::MachineBasicBlock *, std::allocator<llvm::MachineBasicBlock *>>::_Vector_impl" }
%"struct.std::_Vector_base<llvm::MachineBasicBlock *, std::allocator<llvm::MachineBasicBlock *>>::_Vector_impl" = type { %"struct.std::_Vector_base<llvm::MachineBasicBlock *, std::allocator<llvm::MachineBasicBlock *>>::_Vector_impl_data" }
%"struct.std::_Vector_base<llvm::MachineBasicBlock *, std::allocator<llvm::MachineBasicBlock *>>::_Vector_impl_data" = type { ptr, ptr, ptr }
%"class.llvm::BumpPtrAllocatorImpl" = type { ptr, ptr, %"class.llvm::SmallVector.57", %"class.llvm::SmallVector.62", i64, i64 }
%"class.llvm::SmallVector.57" = type { %"class.llvm::SmallVectorImpl.58", %"struct.llvm::SmallVectorStorage.61" }
%"class.llvm::SmallVectorImpl.58" = type { %"class.llvm::SmallVectorTemplateBase.59" }
%"class.llvm::SmallVectorTemplateBase.59" = type { %"class.llvm::SmallVectorTemplateCommon.60" }
%"class.llvm::SmallVectorTemplateCommon.60" = type { %"class.llvm::SmallVectorBase" }
%"struct.llvm::SmallVectorStorage.61" = type { [32 x i8] }
%"class.llvm::SmallVector.62" = type { %"class.llvm::SmallVectorImpl.63" }
%"class.llvm::SmallVectorImpl.63" = type { %"class.llvm::SmallVectorTemplateBase.64" }
%"class.llvm::SmallVectorTemplateBase.64" = type { %"class.llvm::SmallVectorTemplateCommon.65" }
%"class.llvm::SmallVectorTemplateCommon.65" = type { %"class.llvm::SmallVectorBase" }
%"class.llvm::Recycler" = type { ptr }
%"class.llvm::ArrayRecycler" = type { %"class.llvm::SmallVector.67" }
%"class.llvm::SmallVector.67" = type { %"class.llvm::SmallVectorImpl.68", %"struct.llvm::SmallVectorStorage.71" }
%"class.llvm::SmallVectorImpl.68" = type { %"class.llvm::SmallVectorTemplateBase.69" }
%"class.llvm::SmallVectorTemplateBase.69" = type { %"class.llvm::SmallVectorTemplateCommon.70" }
%"class.llvm::SmallVectorTemplateCommon.70" = type { %"class.llvm::SmallVectorBase" }
%"struct.llvm::SmallVectorStorage.71" = type { [64 x i8] }
%"class.llvm::Recycler.72" = type { ptr }
%"class.llvm::iplist" = type { %"class.llvm::iplist_impl" }
%"class.llvm::iplist_impl" = type { %"class.llvm::simple_ilist" }
%"class.llvm::simple_ilist" = type { %"class.llvm::ilist_sentinel" }
%"class.llvm::ilist_sentinel" = type { %"class.llvm::ilist_node_impl" }
%"class.llvm::ilist_node_impl" = type { %"class.llvm::ilist_node_base" }
%"class.llvm::ilist_node_base" = type { %"class.llvm::ilist_detail::node_base_prevnext" }
%"class.llvm::ilist_detail::node_base_prevnext" = type { ptr, ptr }
%"struct.llvm::Align" = type { i8 }
%"class.llvm::MachineFunctionProperties" = type { %"class.std::bitset" }
%"class.std::bitset" = type { %"struct.std::_Base_bitset" }
%"struct.std::_Base_bitset" = type { i64 }
%"class.std::unique_ptr.73" = type { %"struct.std::__uniq_ptr_data.74" }
%"struct.std::__uniq_ptr_data.74" = type { %"class.std::__uniq_ptr_impl.75" }
%"class.std::__uniq_ptr_impl.75" = type { %"class.std::tuple.76" }
%"class.std::tuple.76" = type { %"struct.std::_Tuple_impl.77" }
%"struct.std::_Tuple_impl.77" = type { %"struct.std::_Head_base.80" }
%"struct.std::_Head_base.80" = type { ptr }
%"class.std::vector.81" = type { %"struct.std::_Vector_base.82" }
%"struct.std::_Vector_base.82" = type { %"struct.std::_Vector_base<llvm::MCCFIInstruction, std::allocator<llvm::MCCFIInstruction>>::_Vector_impl" }
%"struct.std::_Vector_base<llvm::MCCFIInstruction, std::allocator<llvm::MCCFIInstruction>>::_Vector_impl" = type { %"struct.std::_Vector_base<llvm::MCCFIInstruction, std::allocator<llvm::MCCFIInstruction>>::_Vector_impl_data" }
%"struct.std::_Vector_base<llvm::MCCFIInstruction, std::allocator<llvm::MCCFIInstruction>>::_Vector_impl_data" = type { ptr, ptr, ptr }
%"class.std::vector.86" = type { %"struct.std::_Vector_base.87" }
%"struct.std::_Vector_base.87" = type { %"struct.std::_Vector_base<llvm::MCSymbol *, std::allocator<llvm::MCSymbol *>>::_Vector_impl" }
%"struct.std::_Vector_base<llvm::MCSymbol *, std::allocator<llvm::MCSymbol *>>::_Vector_impl" = type { %"struct.std::_Vector_base<llvm::MCSymbol *, std::allocator<llvm::MCSymbol *>>::_Vector_impl_data" }
%"struct.std::_Vector_base<llvm::MCSymbol *, std::allocator<llvm::MCSymbol *>>::_Vector_impl_data" = type { ptr, ptr, ptr }
%"class.std::vector.91" = type { %"struct.std::_Vector_base.92" }
%"struct.std::_Vector_base.92" = type { %"struct.std::_Vector_base<llvm::LandingPadInfo, std::allocator<llvm::LandingPadInfo>>::_Vector_impl" }
%"struct.std::_Vector_base<llvm::LandingPadInfo, std::allocator<llvm::LandingPadInfo>>::_Vector_impl" = type { %"struct.std::_Vector_base<llvm::LandingPadInfo, std::allocator<llvm::LandingPadInfo>>::_Vector_impl_data" }
%"struct.std::_Vector_base<llvm::LandingPadInfo, std::allocator<llvm::LandingPadInfo>>::_Vector_impl_data" = type { ptr, ptr, ptr }
%"class.llvm::DenseMap" = type <{ ptr, i32, i32, i32, [4 x i8] }>
%"class.llvm::DenseMap.96" = type <{ ptr, i32, i32, i32, [4 x i8] }>
%"class.llvm::DenseMap.99" = type <{ ptr, i32, i32, i32, [4 x i8] }>
%"class.std::vector.102" = type { %"struct.std::_Vector_base.103" }
%"struct.std::_Vector_base.103" = type { %"struct.std::_Vector_base<std::pair<llvm::MCSymbol *, llvm::MDNode *>, std::allocator<std::pair<llvm::MCSymbol *, llvm::MDNode *>>>::_Vector_impl" }
%"struct.std::_Vector_base<std::pair<llvm::MCSymbol *, llvm::MDNode *>, std::allocator<std::pair<llvm::MCSymbol *, llvm::MDNode *>>>::_Vector_impl" = type { %"struct.std::_Vector_base<std::pair<llvm::MCSymbol *, llvm::MDNode *>, std::allocator<std::pair<llvm::MCSymbol *, llvm::MDNode *>>>::_Vector_impl_data" }
%"struct.std::_Vector_base<std::pair<llvm::MCSymbol *, llvm::MDNode *>, std::allocator<std::pair<llvm::MCSymbol *, llvm::MDNode *>>>::_Vector_impl_data" = type { ptr, ptr, ptr }
%"class.std::vector.107" = type { %"struct.std::_Vector_base.108" }
%"struct.std::_Vector_base.108" = type { %"struct.std::_Vector_base<const llvm::GlobalValue *, std::allocator<const llvm::GlobalValue *>>::_Vector_impl" }
%"struct.std::_Vector_base<const llvm::GlobalValue *, std::allocator<const llvm::GlobalValue *>>::_Vector_impl" = type { %"struct.std::_Vector_base<const llvm::GlobalValue *, std::allocator<const llvm::GlobalValue *>>::_Vector_impl_data" }
%"struct.std::_Vector_base<const llvm::GlobalValue *, std::allocator<const llvm::GlobalValue *>>::_Vector_impl_data" = type { ptr, ptr, ptr }
%"class.std::vector.112" = type { %"struct.std::_Vector_base.113" }
%"struct.std::_Vector_base.113" = type { %"struct.std::_Vector_base<unsigned int, std::allocator<unsigned int>>::_Vector_impl" }
%"struct.std::_Vector_base<unsigned int, std::allocator<unsigned int>>::_Vector_impl" = type { %"struct.std::_Vector_base<unsigned int, std::allocator<unsigned int>>::_Vector_impl_data" }
%"struct.std::_Vector_base<unsigned int, std::allocator<unsigned int>>::_Vector_impl_data" = type { ptr, ptr, ptr }
%"class.llvm::DenseMap.117" = type <{ ptr, i32, i32, i32, [4 x i8] }>
%"class.llvm::SmallVector.120" = type { %"class.llvm::SmallVectorImpl.121", %"struct.llvm::SmallVectorStorage.124" }
%"class.llvm::SmallVectorImpl.121" = type { %"class.llvm::SmallVectorTemplateBase.122" }
%"class.llvm::SmallVectorTemplateBase.122" = type { %"class.llvm::SmallVectorTemplateCommon.123" }
%"class.llvm::SmallVectorTemplateCommon.123" = type { %"class.llvm::SmallVectorBase" }
%"struct.llvm::SmallVectorStorage.124" = type { [128 x i8] }
%"class.llvm::SmallVector.125" = type { %"class.llvm::SmallVectorImpl.126", %"struct.llvm::SmallVectorStorage.129" }
%"class.llvm::SmallVectorImpl.126" = type { %"class.llvm::SmallVectorTemplateBase.127" }
%"class.llvm::SmallVectorTemplateBase.127" = type { %"class.llvm::SmallVectorTemplateCommon.128" }
%"class.llvm::SmallVectorTemplateCommon.128" = type { %"class.llvm::SmallVectorBase" }
%"struct.llvm::SmallVectorStorage.129" = type { [160 x i8] }
%"class.llvm::DenseMap.130" = type <{ ptr, i32, i32, i32, [4 x i8] }>

; Function Attrs: mustprogress nounwind uwtable
define internal void @_ZL11emitX86NopsRN4llvm10MCStreamerEjPKNS_12X86SubtargetE(ptr noundef nonnull align 8 dereferenceable(288) %0, i32 noundef %1, ptr noundef %2) #1 {
  %4 = alloca ptr, align 8
  %5 = alloca i32, align 4
  %6 = alloca ptr, align 8
  %7 = alloca i32, align 4
  store ptr %0, ptr %4, align 8
  store i32 %1, ptr %5, align 4
  store ptr %2, ptr %6, align 8
  %8 = load i32, ptr %5, align 4
  store i32 %8, ptr %7, align 4
  br label %9

9:                                                ; preds = %12, %3
  %10 = load i32, ptr %5, align 4
  %11 = icmp ne i32 %10, 0
  br i1 %11, label %12, label %19

12:                                               ; preds = %9
  %13 = load ptr, ptr %4, align 8
  %14 = load i32, ptr %5, align 4
  %15 = load ptr, ptr %6, align 8
  %16 = call noundef i32 @_ZL7emitNopRN4llvm10MCStreamerEjPKNS_12X86SubtargetE(ptr noundef nonnull align 8 dereferenceable(288) %13, i32 noundef %14, ptr noundef %15)
  %17 = load i32, ptr %5, align 4
  %18 = sub i32 %17, %16
  store i32 %18, ptr %5, align 4
  br label %9, !llvm.loop !4

19:                                               ; preds = %9
  ret void
}

; Function Attrs: mustprogress nounwind uwtable
define linkonce_odr hidden noundef nonnull align 8 dereferenceable(409248) ptr @_ZNK4llvm15MachineFunction12getSubtargetINS_12X86SubtargetEEERKT_v(ptr noundef nonnull align 8 dereferenceable(1041) %0) #1 comdat align 2 {
  %2 = alloca ptr, align 8
  store ptr %0, ptr %2, align 8
  %3 = load ptr, ptr %2, align 8
  %4 = getelementptr inbounds nuw %"class.llvm::MachineFunction", ptr %3, i32 0, i32 2
  %5 = load ptr, ptr %4, align 8
  ret ptr %5
}

; Function Attrs: mustprogress nounwind uwtable
define hidden void @_ZN4llvm13X86AsmPrinter21StackMapShadowTracker17emitShadowPaddingERNS_10MCStreamerERKNS_15MCSubtargetInfoE(ptr noundef nonnull align 8 dereferenceable(20) %0, ptr noundef nonnull align 8 dereferenceable(288) %1, ptr noundef nonnull align 8 dereferenceable(288) %2) #1 align 2 {
  %4 = alloca ptr, align 8
  %5 = alloca ptr, align 8
  %6 = alloca ptr, align 8
  store ptr %0, ptr %4, align 8
  store ptr %1, ptr %5, align 8
  store ptr %2, ptr %6, align 8
  %7 = load ptr, ptr %4, align 8
  %8 = getelementptr inbounds nuw %"class.llvm::X86AsmPrinter::StackMapShadowTracker", ptr %7, i32 0, i32 1
  %9 = load i8, ptr %8, align 8
  %10 = trunc i8 %9 to i1
  br i1 %10, label %11, label %28

11:                                               ; preds = %3
  %12 = getelementptr inbounds nuw %"class.llvm::X86AsmPrinter::StackMapShadowTracker", ptr %7, i32 0, i32 4
  %13 = load i32, ptr %12, align 8
  %14 = getelementptr inbounds nuw %"class.llvm::X86AsmPrinter::StackMapShadowTracker", ptr %7, i32 0, i32 3
  %15 = load i32, ptr %14, align 4
  %16 = icmp ult i32 %13, %15
  br i1 %16, label %17, label %28

17:                                               ; preds = %11
  %18 = getelementptr inbounds nuw %"class.llvm::X86AsmPrinter::StackMapShadowTracker", ptr %7, i32 0, i32 1
  store i8 0, ptr %18, align 8
  %19 = load ptr, ptr %5, align 8
  %20 = getelementptr inbounds nuw %"class.llvm::X86AsmPrinter::StackMapShadowTracker", ptr %7, i32 0, i32 3
  %21 = load i32, ptr %20, align 4
  %22 = getelementptr inbounds nuw %"class.llvm::X86AsmPrinter::StackMapShadowTracker", ptr %7, i32 0, i32 4
  %23 = load i32, ptr %22, align 8
  %24 = sub i32 %21, %23
  %25 = getelementptr inbounds nuw %"class.llvm::X86AsmPrinter::StackMapShadowTracker", ptr %7, i32 0, i32 0
  %26 = load ptr, ptr %25, align 8
  %27 = call noundef nonnull align 8 dereferenceable(409248) ptr @_ZNK4llvm15MachineFunction12getSubtargetINS_12X86SubtargetEEERKT_v(ptr noundef nonnull align 8 dereferenceable(1041) %26)
  call void @_ZL11emitX86NopsRN4llvm10MCStreamerEjPKNS_12X86SubtargetE(ptr noundef nonnull align 8 dereferenceable(288) %19, i32 noundef %24, ptr noundef %27)
  br label %28

28:                                               ; preds = %17, %11, %3
  ret void
}