; Function Attrs: mustprogress nounwind uwtable
define hidden void @_ZN4llvm13X86AsmPrinter21StackMapShadowTracker17emitShadowPaddingERNS_10MCStreamerERKNS_15MCSubtargetInfoE(ptr nocapture noundef nonnull align 8 dereferenceable(20) %0, ptr noundef nonnull align 8 dereferenceable(288) %1, ptr nocapture noundef nonnull readnone align 8 dereferenceable(288) %2) local_unnamed_addr #0 align 2 {
  %4 = getelementptr inbounds nuw i8, ptr %0, i64 8
  %5 = load i8, ptr %4, align 8
  %6 = trunc i8 %5 to i1
  br i1 %6, label %7, label %_ZL11emitX86NopsRN4llvm10MCStreamerEjPKNS_12X86SubtargetE.exit

7:                                                ; preds = %3
  %8 = getelementptr inbounds nuw i8, ptr %0, i64 16
  %9 = load i32, ptr %8, align 8
  %10 = getelementptr inbounds nuw i8, ptr %0, i64 12
  %11 = load i32, ptr %10, align 4
  %12 = icmp ult i32 %9, %11
  br i1 %12, label %.lr.ph.i.preheader, label %_ZL11emitX86NopsRN4llvm10MCStreamerEjPKNS_12X86SubtargetE.exit

.lr.ph.i.preheader:                               ; preds = %7
  store i8 0, ptr %4, align 8
  %13 = sub nuw i32 %11, %9
  %14 = load ptr, ptr %0, align 8
  %15 = getelementptr inbounds nuw i8, ptr %14, i64 16
  %16 = load ptr, ptr %15, align 8
  br label %.lr.ph.i

.lr.ph.i:                                         ; preds = %.lr.ph.i.preheader, %.lr.ph.i
  %.06.i = phi i32 [ %18, %.lr.ph.i ], [ %13, %.lr.ph.i.preheader ]
  %17 = tail call fastcc noundef i32 @_ZL7emitNopRN4llvm10MCStreamerEjPKNS_12X86SubtargetE(ptr noundef nonnull align 8 dereferenceable(288) %1, i32 noundef %.06.i, ptr noundef %16)
  %18 = sub i32 %.06.i, %17
  %.not.i = icmp eq i32 %18, 0
  br i1 %.not.i, label %_ZL11emitX86NopsRN4llvm10MCStreamerEjPKNS_12X86SubtargetE.exit, label %.lr.ph.i, !llvm.loop !4

_ZL11emitX86NopsRN4llvm10MCStreamerEjPKNS_12X86SubtargetE.exit: ; preds = %.lr.ph.i, %7, %3
  ret void
}